; Function Attrs: mustprogress nounwind sspstrong uwtable
define void @_ZN3tbb6detail2r117do_throw_noexceptEPFvvE(ptr noundef readonly captures(none) %0) local_unnamed_addr #1 personality ptr @__gxx_personality_v0 {
  invoke void %0()
          to label %2 unwind label %3

2:                                                ; preds = %1
  ret void

3:                                                ; preds = %1
  %4 = landingpad { ptr, i32 }
          catch ptr null
  %5 = extractvalue { ptr, i32 } %4, 0
  tail call void @__clang_call_terminate(ptr %5) #17
  unreachable
}